; ModuleID = 'source-C-CXX/56/2694.c'
source_filename = "source-C-CXX/56/2694.c"
target datalayout = "e-m:e-p270:32:32-p271:32:32-p272:64:64-i64:64-f80:128-n8:16:32:64-S128"
target triple = "x86_64-pc-linux-gnu"

@.str = private unnamed_addr constant [3 x i8] c"%d\00", align 1
@.str.1 = private unnamed_addr constant [3 x i8] c"%s\00", align 1
@.str.2 = private unnamed_addr constant [3 x i8] c"er\00", align 1
@.str.3 = private unnamed_addr constant [3 x i8] c"ly\00", align 1
@.str.4 = private unnamed_addr constant [4 x i8] c"ing\00", align 1

; Function Attrs: nofree nounwind sspstrong uwtable
define dso_local i32 @main() local_unnamed_addr #0 {
  %1 = alloca i32, align 4
  %2 = alloca [50 x [33 x i8]], align 16
  %3 = bitcast i32* %1 to i8*
  call void @llvm.lifetime.start.p0i8(i64 4, i8* nonnull %3) #5
  %4 = getelementptr inbounds [50 x [33 x i8]], [50 x [33 x i8]]* %2, i64 0, i64 0, i64 0
  call void @llvm.lifetime.start.p0i8(i64 1650, i8* nonnull %4) #5
  %5 = call i32 (i8*, ...) @__isoc99_scanf(i8* getelementptr inbounds ([3 x i8], [3 x i8]* @.str, i64 0, i64 0), i32* nonnull %1)
  %6 = load i32, i32* %1, align 4, !tbaa !5
  %7 = icmp sgt i32 %6, 0
  br i1 %7, label %12, label %62

8:                                                ; preds = %12
  %9 = icmp sgt i32 %17, 0
  br i1 %9, label %10, label %62

10:                                               ; preds = %8
  %11 = zext i32 %17 to i64
  br label %20

12:                                               ; preds = %0, %12
  %13 = phi i64 [ %16, %12 ], [ 0, %0 ]
  %14 = getelementptr inbounds [50 x [33 x i8]], [50 x [33 x i8]]* %2, i64 0, i64 %13, i64 0
  %15 = call i32 (i8*, ...) @__isoc99_scanf(i8* getelementptr inbounds ([3 x i8], [3 x i8]* @.str.1, i64 0, i64 0), i8* nonnull %14)
  %16 = add nuw nsw i64 %13, 1
  %17 = load i32, i32* %1, align 4, !tbaa !5
  %18 = sext i32 %17 to i64
  %19 = icmp slt i64 %16, %18
  br i1 %19, label %12, label %8, !llvm.loop !9

20:                                               ; preds = %10, %51
  %21 = phi i64 [ 0, %10 ], [ %52, %51 ]
  %22 = getelementptr inbounds [50 x [33 x i8]], [50 x [33 x i8]]* %2, i64 0, i64 %21, i64 0
  %23 = load i8, i8* %22, align 1, !tbaa !11
  %24 = icmp eq i8 %23, 0
  br i1 %24, label %51, label %26

25:                                               ; preds = %51
  br i1 %9, label %54, label %62

26:                                               ; preds = %20, %46
  %27 = phi i64 [ %47, %46 ], [ 0, %20 ]
  %28 = call i64 @strlen(i8* noundef nonnull %22) #6
  %29 = shl i64 %28, 32
  %30 = add i64 %29, -8589934592
  %31 = ashr exact i64 %30, 32
  %32 = getelementptr inbounds [50 x [33 x i8]], [50 x [33 x i8]]* %2, i64 0, i64 %21, i64 %31
  %33 = call i32 @strcmp(i8* noundef nonnull %32, i8* noundef nonnull dereferenceable(3) getelementptr inbounds ([3 x i8], [3 x i8]* @.str.2, i64 0, i64 0)) #6
  %34 = icmp eq i32 %33, 0
  br i1 %34, label %44, label %35

35:                                               ; preds = %26
  %36 = call i32 @strcmp(i8* noundef nonnull %32, i8* noundef nonnull dereferenceable(3) getelementptr inbounds ([3 x i8], [3 x i8]* @.str.3, i64 0, i64 0)) #6
  %37 = icmp eq i32 %36, 0
  br i1 %37, label %44, label %38

38:                                               ; preds = %35
  %39 = add i64 %29, -12884901888
  %40 = ashr exact i64 %39, 32
  %41 = getelementptr inbounds [50 x [33 x i8]], [50 x [33 x i8]]* %2, i64 0, i64 %21, i64 %40
  %42 = call i32 @strcmp(i8* noundef nonnull %41, i8* noundef nonnull dereferenceable(4) getelementptr inbounds ([4 x i8], [4 x i8]* @.str.4, i64 0, i64 0)) #6
  %43 = icmp eq i32 %42, 0
  br i1 %43, label %44, label %46

44:                                               ; preds = %38, %35, %26
  %45 = phi i8* [ %32, %26 ], [ %32, %35 ], [ %41, %38 ]
  store i8 0, i8* %45, align 1, !tbaa !11
  br label %46

46:                                               ; preds = %44, %38
  %47 = add nuw i64 %27, 1
  %48 = getelementptr inbounds [50 x [33 x i8]], [50 x [33 x i8]]* %2, i64 0, i64 %21, i64 %47
  %49 = load i8, i8* %48, align 1, !tbaa !11
  %50 = icmp eq i8 %49, 0
  br i1 %50, label %51, label %26, !llvm.loop !12

51:                                               ; preds = %46, %20
  %52 = add nuw nsw i64 %21, 1
  %53 = icmp eq i64 %52, %11
  br i1 %53, label %25, label %20, !llvm.loop !13

54:                                               ; preds = %25, %54
  %55 = phi i64 [ %58, %54 ], [ 0, %25 ]
  %56 = getelementptr inbounds [50 x [33 x i8]], [50 x [33 x i8]]* %2, i64 0, i64 %55, i64 0
  %57 = call i32 @puts(i8* nonnull %56)
  %58 = add nuw nsw i64 %55, 1
  %59 = load i32, i32* %1, align 4, !tbaa !5
  %60 = sext i32 %59 to i64
  %61 = icmp slt i64 %58, %60
  br i1 %61, label %54, label %62, !llvm.loop !14

62:                                               ; preds = %54, %8, %0, %25
  call void @llvm.lifetime.end.p0i8(i64 1650, i8* nonnull %4) #5
  call void @llvm.lifetime.end.p0i8(i64 4, i8* nonnull %3) #5
  ret i32 0
}

; Function Attrs: argmemonly mustprogress nofree nosync nounwind willreturn
declare void @llvm.lifetime.start.p0i8(i64 immarg, i8* nocapture) #1

; Function Attrs: nofree nounwind
declare noundef i32 @__isoc99_scanf(i8* nocapture noundef readonly, ...) local_unnamed_addr #2

; Function Attrs: argmemonly mustprogress nofree nounwind readonly willreturn
declare i64 @strlen(i8* nocapture) local_unnamed_addr #3

; Function Attrs: argmemonly mustprogress nofree nounwind readonly willreturn
declare i32 @strcmp(i8* nocapture, i8* nocapture) local_unnamed_addr #3

; Function Attrs: argmemonly mustprogress nofree nosync nounwind willreturn
declare void @llvm.lifetime.end.p0i8(i64 immarg, i8* nocapture) #1

; Function Attrs: nofree nounwind
declare noundef i32 @puts(i8* nocapture noundef readonly) local_unnamed_addr #4


!llvm.module.flags = !{!0, !1, !2, !3}
!llvm.ident = !{!4}

!0 = !{i32 1, !"wchar_size", i32 4}
!1 = !{i32 7, !"PIC Level", i32 2}
!2 = !{i32 7, !"PIE Level", i32 2}
!3 = !{i32 7, !"uwtable", i32 1}
!4 = !{!"clang version 13.0.0"}
!5 = !{!6, !6, i64 0}
!6 = !{!"int", !7, i64 0}
!7 = !{!"omnipotent char", !8, i64 0}
!8 = !{!"Simple C/C++ TBAA"}
!9 = distinct !{!9, !10}
!10 = !{!"llvm.loop.mustprogress"}
!11 = !{!7, !7, i64 0}
!12 = distinct !{!12, !10}
!13 = distinct !{!13, !10}
!14 = distinct !{!14, !10}
